target datalayout = "e-m:e-p270:32:32-p271:32:32-p272:64:64-i64:64-i128:128-f80:128-n8:16:32:64-S128"
target triple = "x86_64-pc-linux-gnu"

%struct.List = type { i32, i32, i32, ptr, [0 x %union.ListCell] }
%union.ListCell = type { ptr }
%struct.Node = type { i32 }
%struct.RangeTblRef = type { i32, i32 }
%struct.RangeTblEntry = type { i32, ptr, ptr, i32, i32, i8, i8, i32, i32, ptr, ptr, i8, i32, i32, ptr, ptr, ptr, ptr, ptr, i8, ptr, ptr, ptr, i32, i8, ptr, ptr, ptr, ptr, double, ptr, i8, i8, ptr }
%struct.Query = type { i32, i32, i32, i64, i8, ptr, i32, i8, i8, i8, i8, i8, i8, i8, i8, i8, i8, i8, ptr, ptr, ptr, ptr, ptr, i32, ptr, ptr, i32, ptr, ptr, ptr, ptr, ptr, i8, ptr, ptr, ptr, ptr, ptr, ptr, ptr, i32, ptr, ptr, ptr, ptr, i32, i32 }
%struct.SetOperationStmt = type { i32, i32, i8, ptr, ptr, ptr, ptr, ptr, ptr }

@.str.1 = private unnamed_addr constant [11 x i8] c"allpaths.c\00", align 1
@.str.3 = private unnamed_addr constant [27 x i8] c"unrecognized node type: %d\00", align 1
@__func__.recurse_push_qual = private unnamed_addr constant [18 x i8] c"recurse_push_qual\00", align 1

; Function Attrs: inlinehint nounwind uwtable
define internal ptr @list_nth_cell(ptr noundef %0, i32 noundef %1) #4 {
  %3 = alloca ptr, align 8
  %4 = alloca i32, align 4
  store ptr %0, ptr %3, align 8
  store i32 %1, ptr %4, align 4
  %5 = load ptr, ptr %3, align 8
  %6 = getelementptr inbounds nuw %struct.List, ptr %5, i32 0, i32 3
  %7 = load ptr, ptr %6, align 8
  %8 = load i32, ptr %4, align 4
  %9 = sext i32 %8 to i64
  %10 = getelementptr inbounds %union.ListCell, ptr %7, i64 %9
  ret ptr %10
}

; Function Attrs: inlinehint nounwind uwtable
define internal ptr @list_nth(ptr noundef %0, i32 noundef %1) #4 {
  %3 = alloca ptr, align 8
  %4 = alloca i32, align 4
  store ptr %0, ptr %3, align 8
  store i32 %1, ptr %4, align 4
  %5 = load ptr, ptr %3, align 8
  %6 = load i32, ptr %4, align 4
  %7 = call ptr @list_nth_cell(ptr noundef %5, i32 noundef %6)
  %8 = load ptr, ptr %7, align 8
  ret ptr %8
}

; Function Attrs: nounwind uwtable
define internal void @recurse_push_qual(ptr noundef %0, ptr noundef %1, ptr noundef %2, i32 noundef %3, ptr noundef %4) #0 {
  %6 = alloca ptr, align 8
  %7 = alloca ptr, align 8
  %8 = alloca ptr, align 8
  %9 = alloca i32, align 4
  %10 = alloca ptr, align 8
  %11 = alloca ptr, align 8
  %12 = alloca ptr, align 8
  %13 = alloca ptr, align 8
  %14 = alloca ptr, align 8
  store ptr %0, ptr %6, align 8
  store ptr %1, ptr %7, align 8
  store ptr %2, ptr %8, align 8
  store i32 %3, ptr %9, align 4
  store ptr %4, ptr %10, align 8
  %15 = load ptr, ptr %6, align 8
  %16 = getelementptr inbounds nuw %struct.Node, ptr %15, i32 0, i32 0
  %17 = load i32, ptr %16, align 4
  %18 = icmp eq i32 %17, 63
  br i1 %18, label %19, label %36

19:                                               ; preds = %5
  call void @llvm.lifetime.start.p0(i64 8, ptr %11) #8
  %20 = load ptr, ptr %6, align 8
  store ptr %20, ptr %11, align 8
  call void @llvm.lifetime.start.p0(i64 8, ptr %12) #8
  %21 = load ptr, ptr %7, align 8
  %22 = getelementptr inbounds nuw %struct.Query, ptr %21, i32 0, i32 19
  %23 = load ptr, ptr %22, align 8
  %24 = load ptr, ptr %11, align 8
  %25 = getelementptr inbounds nuw %struct.RangeTblRef, ptr %24, i32 0, i32 1
  %26 = load i32, ptr %25, align 4
  %27 = sub i32 %26, 1
  %28 = call ptr @list_nth(ptr noundef %23, i32 noundef %27)
  store ptr %28, ptr %12, align 8
  call void @llvm.lifetime.start.p0(i64 8, ptr %13) #8
  %29 = load ptr, ptr %12, align 8
  %30 = getelementptr inbounds nuw %struct.RangeTblEntry, ptr %29, i32 0, i32 10
  %31 = load ptr, ptr %30, align 8
  store ptr %31, ptr %13, align 8
  %32 = load ptr, ptr %13, align 8
  %33 = load ptr, ptr %8, align 8
  %34 = load i32, ptr %9, align 4
  %35 = load ptr, ptr %10, align 8
  call void @subquery_push_qual(ptr noundef %32, ptr noundef %33, i32 noundef %34, ptr noundef %35)
  call void @llvm.lifetime.end.p0(i64 8, ptr %13) #8
  call void @llvm.lifetime.end.p0(i64 8, ptr %12) #8
  call void @llvm.lifetime.end.p0(i64 8, ptr %11) #8
  br label %71

36:                                               ; preds = %5
  %37 = load ptr, ptr %6, align 8
  %38 = getelementptr inbounds nuw %struct.Node, ptr %37, i32 0, i32 0
  %39 = load i32, ptr %38, align 4
  %40 = icmp eq i32 %39, 142
  br i1 %40, label %41, label %57

41:                                               ; preds = %36
  call void @llvm.lifetime.start.p0(i64 8, ptr %14) #8
  %42 = load ptr, ptr %6, align 8
  store ptr %42, ptr %14, align 8
  %43 = load ptr, ptr %14, align 8
  %44 = getelementptr inbounds nuw %struct.SetOperationStmt, ptr %43, i32 0, i32 3
  %45 = load ptr, ptr %44, align 8
  %46 = load ptr, ptr %7, align 8
  %47 = load ptr, ptr %8, align 8
  %48 = load i32, ptr %9, align 4
  %49 = load ptr, ptr %10, align 8
  call void @recurse_push_qual(ptr noundef %45, ptr noundef %46, ptr noundef %47, i32 noundef %48, ptr noundef %49)
  %50 = load ptr, ptr %14, align 8
  %51 = getelementptr inbounds nuw %struct.SetOperationStmt, ptr %50, i32 0, i32 4
  %52 = load ptr, ptr %51, align 8
  %53 = load ptr, ptr %7, align 8
  %54 = load ptr, ptr %8, align 8
  %55 = load i32, ptr %9, align 4
  %56 = load ptr, ptr %10, align 8
  call void @recurse_push_qual(ptr noundef %52, ptr noundef %53, ptr noundef %54, i32 noundef %55, ptr noundef %56)
  call void @llvm.lifetime.end.p0(i64 8, ptr %14) #8
  br label %70

57:                                               ; preds = %36
  br label %58

58:                                               ; preds = %57
  br i1 true, label %59, label %61

59:                                               ; preds = %58
  %60 = call zeroext i1 @errstart_cold(i32 noundef 21, ptr noundef null) #9
  br i1 %60, label %63, label %68

61:                                               ; preds = %58
  %62 = call zeroext i1 @errstart(i32 noundef 21, ptr noundef null)
  br i1 %62, label %63, label %68

63:                                               ; preds = %61, %59
  %64 = load ptr, ptr %6, align 8
  %65 = getelementptr inbounds nuw %struct.Node, ptr %64, i32 0, i32 0
  %66 = load i32, ptr %65, align 4
  %67 = call i32 (ptr, ...) @errmsg_internal(ptr noundef @.str.3, i32 noundef %66)
  call void @errfinish(ptr noundef @.str.1, i32 noundef 4044, ptr noundef @__func__.recurse_push_qual)
  br label %68

68:                                               ; preds = %63, %61, %59
  unreachable

69:                                               ; No predecessors!
  br label %70

70:                                               ; preds = %69, %41
  br label %71

71:                                               ; preds = %70, %19
  ret void
}