; Function Attrs: nounwind uwtable
define internal fastcc void @recurse_push_qual(ptr noundef readonly captures(none) %0, ptr noundef readonly captures(none) %1, ptr noundef %2, i32 noundef %3, ptr noundef %4) unnamed_addr #0 {
  br label %tailrecurse

tailrecurse:                                      ; preds = %19, %5
  %.tr = phi ptr [ %0, %5 ], [ %23, %19 ]
  %6 = load i32, ptr %.tr, align 4
  switch i32 %6, label %24 [
    i32 63, label %7
    i32 142, label %19
  ]

7:                                                ; preds = %tailrecurse
  %8 = getelementptr inbounds nuw i8, ptr %1, i64 64
  %9 = load ptr, ptr %8, align 8
  %10 = getelementptr inbounds nuw i8, ptr %.tr, i64 4
  %11 = load i32, ptr %10, align 4
  %12 = add i32 %11, -1
  %13 = getelementptr i8, ptr %9, i64 16
  %.val = load ptr, ptr %13, align 8
  %14 = sext i32 %12 to i64
  %15 = getelementptr inbounds %union.ListCell, ptr %.val, i64 %14
  %16 = load ptr, ptr %15, align 8
  %17 = getelementptr inbounds nuw i8, ptr %16, i64 56
  %18 = load ptr, ptr %17, align 8
  tail call fastcc void @subquery_push_qual(ptr noundef %18, ptr noundef %2, i32 noundef %3, ptr noundef %4)
  ret void

19:                                               ; preds = %tailrecurse
  %20 = getelementptr inbounds nuw i8, ptr %.tr, i64 16
  %21 = load ptr, ptr %20, align 8
  tail call fastcc void @recurse_push_qual(ptr noundef %21, ptr noundef %1, ptr noundef %2, i32 noundef %3, ptr noundef %4)
  %22 = getelementptr inbounds nuw i8, ptr %.tr, i64 24
  %23 = load ptr, ptr %22, align 8
  br label %tailrecurse

24:                                               ; preds = %tailrecurse
  %25 = tail call zeroext i1 @errstart_cold(i32 noundef 21, ptr noundef null) #10
  tail call void @llvm.assume(i1 %25)
  %26 = load i32, ptr %.tr, align 4
  %27 = tail call i32 (ptr, ...) @errmsg_internal(ptr noundef nonnull @.str.3, i32 noundef %26) #9
  tail call void @errfinish(ptr noundef nonnull @.str.1, i32 noundef 4044, ptr noundef nonnull @__func__.recurse_push_qual) #9
  unreachable
}